target datalayout = "e-m:e-p270:32:32-p271:32:32-p272:64:64-i64:64-i128:128-f80:128-n8:16:32:64-S128"
target triple = "x86_64-pc-linux-gnu"

@rb_eArgError = external global i64, align 8
@.str.69 = private unnamed_addr constant [35 x i8] c"invalid value for convert(): %+li\0B\00", align 1

; Function Attrs: nounwind sspstrong uwtable
define internal i64 @string_to_c_strict(i64 noundef %0, i32 noundef %1) #0 {
  %3 = alloca i64, align 8
  %4 = alloca i64, align 8
  %5 = alloca i32, align 4
  %6 = alloca ptr, align 8
  %7 = alloca i64, align 8
  %8 = alloca i32, align 4
  store i64 %0, ptr %4, align 8, !tbaa !13
  store i32 %1, ptr %5, align 4, !tbaa !11
  call void @llvm.lifetime.start.p0(i64 8, ptr %6) #23
  call void @llvm.lifetime.start.p0(i64 8, ptr %7) #23
  %9 = load i64, ptr %4, align 8, !tbaa !13
  call void @rb_must_asciicompat(i64 noundef %9)
  %10 = load i32, ptr %5, align 4, !tbaa !11
  %11 = icmp ne i32 %10, 0
  br i1 %11, label %12, label %14

12:                                               ; preds = %2
  %13 = call ptr @rb_string_value_cstr(ptr noundef %4)
  store ptr %13, ptr %6, align 8, !tbaa !42
  br label %20

14:                                               ; preds = %2
  %15 = load i64, ptr %4, align 8, !tbaa !13
  %16 = call ptr @rb_str_to_cstr(i64 noundef %15)
  store ptr %16, ptr %6, align 8, !tbaa !42
  %17 = icmp ne ptr %16, null
  br i1 %17, label %19, label %18

18:                                               ; preds = %14
  store i64 4, ptr %3, align 8
  store i32 1, ptr %8, align 4
  br label %33

19:                                               ; preds = %14
  br label %20

20:                                               ; preds = %19, %12
  %21 = load ptr, ptr %6, align 8, !tbaa !42
  %22 = call i32 @parse_comp(ptr noundef %21, i32 noundef 1, ptr noundef %7)
  %23 = icmp ne i32 %22, 0
  br i1 %23, label %31, label %24

24:                                               ; preds = %20
  %25 = load i32, ptr %5, align 4, !tbaa !11
  %26 = icmp ne i32 %25, 0
  br i1 %26, label %28, label %27

27:                                               ; preds = %24
  store i64 4, ptr %3, align 8
  store i32 1, ptr %8, align 4
  br label %33

28:                                               ; preds = %24
  %29 = load i64, ptr @rb_eArgError, align 8, !tbaa !13
  %30 = load i64, ptr %4, align 8, !tbaa !13
  call void (i64, ptr, ...) @rb_raise(i64 noundef %29, ptr noundef @.str.69, i64 noundef %30) #27
  unreachable

31:                                               ; preds = %20
  %32 = load i64, ptr %7, align 8, !tbaa !13
  store i64 %32, ptr %3, align 8
  store i32 1, ptr %8, align 4
  br label %33

33:                                               ; preds = %31, %27, %18
  call void @llvm.lifetime.end.p0(i64 8, ptr %7) #23
  call void @llvm.lifetime.end.p0(i64 8, ptr %6) #23
  %34 = load i64, ptr %3, align 8
  ret i64 %34
}