; Function Attrs: nounwind sspstrong uwtable
define internal fastcc i64 @string_to_c_strict(i64 noundef %0, i32 noundef %1) unnamed_addr #0 {
  %3 = alloca i64, align 8
  %4 = alloca i64, align 8
  store i64 %0, ptr %3, align 8, !tbaa !11
  call void @llvm.lifetime.start.p0(i64 8, ptr nonnull %4) #17
  tail call void @rb_must_asciicompat(i64 noundef %0) #17
  %.not = icmp eq i32 %1, 0
  br i1 %.not, label %5, label %.thread

5:                                                ; preds = %2
  %6 = tail call ptr @rb_str_to_cstr(i64 noundef %0) #17
  %.not5 = icmp eq ptr %6, null
  br i1 %.not5, label %16, label %7

7:                                                ; preds = %5
  %8 = call fastcc i32 @parse_comp(ptr noundef nonnull %6, i32 noundef 1, ptr noundef %4)
  %.not6 = icmp eq i32 %8, 0
  br i1 %.not6, label %16, label %14

.thread:                                          ; preds = %2
  %9 = call ptr @rb_string_value_cstr(ptr noundef nonnull %3) #17
  %10 = call fastcc i32 @parse_comp(ptr noundef %9, i32 noundef 1, ptr noundef %4)
  %.not68 = icmp eq i32 %10, 0
  br i1 %.not68, label %11, label %14

11:                                               ; preds = %.thread
  %12 = load i64, ptr @rb_eArgError, align 8, !tbaa !11
  %13 = load i64, ptr %3, align 8, !tbaa !11
  call void (i64, ptr, ...) @rb_raise(i64 noundef %12, ptr noundef nonnull @.str.69, i64 noundef %13) #21
  unreachable

14:                                               ; preds = %.thread, %7
  %15 = load i64, ptr %4, align 8, !tbaa !11
  br label %16

16:                                               ; preds = %7, %5, %14
  %.03 = phi i64 [ %15, %14 ], [ 4, %5 ], [ 4, %7 ]
  call void @llvm.lifetime.end.p0(i64 8, ptr nonnull %4) #17
  ret i64 %.03
}